; Function Attrs: mustprogress nounwind
define internal noundef ptr @_ZN3tbb6detail2d223for_each_root_task_baseIN9__gnu_cxx17__normal_iteratorIPPN4mold10ObjectFileINS5_6X86_64EEESt6vectorIS9_SaIS9_EEEEZNS5_L26r_claim_unresolved_symbolsIS7_EEvRNS5_7ContextIT_EEEUlS9_E_S9_E6cancelERNS0_2d114execution_dataE(ptr noundef nonnull readonly align 64 captures(none) dereferenceable(105) %0, ptr nonnull readnone align 8 captures(none) %1) unnamed_addr #4 align 2 {
  %3 = getelementptr inbounds nuw i8, ptr %0, i64 80
  %4 = load ptr, ptr %3, align 16, !tbaa !453
  %5 = load ptr, ptr %4, align 8, !tbaa !11
  %6 = getelementptr inbounds nuw i8, ptr %5, i64 8
  %7 = load ptr, ptr %6, align 8
  tail call void %7(ptr noundef nonnull align 8 dereferenceable(24) %4, i32 noundef 1) #11
  ret ptr null
}